target datalayout = "e-m:e-p270:32:32-p271:32:32-p272:64:64-i64:64-i128:128-f80:128-n8:16:32:64-S128"
target triple = "x86_64-pc-linux-gnu"

%struct.err_state_st = type { [16 x i32], [16 x i32], [16 x i64], [16 x ptr], [16 x i64], [16 x i32], [16 x ptr], [16 x i32], [16 x ptr], i32, i32 }

@.str = private unnamed_addr constant [28 x i8] c"../openssl/crypto/err/err.c\00", align 1
@err_thread_local = internal global i32 0, align 4
@.str.7 = private unnamed_addr constant [34 x i8] c"../openssl/crypto/err/err_local.h\00", align 1

; Function Attrs: inlinehint nounwind uwtable
define internal void @err_clear_data(ptr noundef %0, i64 noundef %1, i32 noundef %2) #2 {
  %4 = alloca ptr, align 8
  %5 = alloca i64, align 8
  %6 = alloca i32, align 4
  store ptr %0, ptr %4, align 8, !tbaa !3
  store i64 %1, ptr %5, align 8, !tbaa !12
  store i32 %2, ptr %6, align 4, !tbaa !8
  %7 = load ptr, ptr %4, align 8, !tbaa !3
  %8 = getelementptr inbounds nuw %struct.err_state_st, ptr %7, i32 0, i32 5
  %9 = load i64, ptr %5, align 8, !tbaa !12
  %10 = getelementptr inbounds nuw [16 x i32], ptr %8, i64 0, i64 %9
  %11 = load i32, ptr %10, align 4, !tbaa !8
  %12 = and i32 %11, 1
  %13 = icmp ne i32 %12, 0
  br i1 %13, label %14, label %55

14:                                               ; preds = %3
  %15 = load i32, ptr %6, align 4, !tbaa !8
  %16 = icmp ne i32 %15, 0
  br i1 %16, label %17, label %35

17:                                               ; preds = %14
  %18 = load ptr, ptr %4, align 8, !tbaa !3
  %19 = getelementptr inbounds nuw %struct.err_state_st, ptr %18, i32 0, i32 3
  %20 = load i64, ptr %5, align 8, !tbaa !12
  %21 = getelementptr inbounds nuw [16 x ptr], ptr %19, i64 0, i64 %20
  %22 = load ptr, ptr %21, align 8, !tbaa !14
  call void @CRYPTO_free(ptr noundef %22, ptr noundef @.str.7, i32 noundef 25)
  %23 = load ptr, ptr %4, align 8, !tbaa !3
  %24 = getelementptr inbounds nuw %struct.err_state_st, ptr %23, i32 0, i32 3
  %25 = load i64, ptr %5, align 8, !tbaa !12
  %26 = getelementptr inbounds nuw [16 x ptr], ptr %24, i64 0, i64 %25
  store ptr null, ptr %26, align 8, !tbaa !14
  %27 = load ptr, ptr %4, align 8, !tbaa !3
  %28 = getelementptr inbounds nuw %struct.err_state_st, ptr %27, i32 0, i32 4
  %29 = load i64, ptr %5, align 8, !tbaa !12
  %30 = getelementptr inbounds nuw [16 x i64], ptr %28, i64 0, i64 %29
  store i64 0, ptr %30, align 8, !tbaa !12
  %31 = load ptr, ptr %4, align 8, !tbaa !3
  %32 = getelementptr inbounds nuw %struct.err_state_st, ptr %31, i32 0, i32 5
  %33 = load i64, ptr %5, align 8, !tbaa !12
  %34 = getelementptr inbounds nuw [16 x i32], ptr %32, i64 0, i64 %33
  store i32 0, ptr %34, align 4, !tbaa !8
  br label %54

35:                                               ; preds = %14
  %36 = load ptr, ptr %4, align 8, !tbaa !3
  %37 = getelementptr inbounds nuw %struct.err_state_st, ptr %36, i32 0, i32 3
  %38 = load i64, ptr %5, align 8, !tbaa !12
  %39 = getelementptr inbounds nuw [16 x ptr], ptr %37, i64 0, i64 %38
  %40 = load ptr, ptr %39, align 8, !tbaa !14
  %41 = icmp ne ptr %40, null
  br i1 %41, label %42, label %53

42:                                               ; preds = %35
  %43 = load ptr, ptr %4, align 8, !tbaa !3
  %44 = getelementptr inbounds nuw %struct.err_state_st, ptr %43, i32 0, i32 3
  %45 = load i64, ptr %5, align 8, !tbaa !12
  %46 = getelementptr inbounds nuw [16 x ptr], ptr %44, i64 0, i64 %45
  %47 = load ptr, ptr %46, align 8, !tbaa !14
  %48 = getelementptr inbounds i8, ptr %47, i64 0
  store i8 0, ptr %48, align 1, !tbaa !38
  %49 = load ptr, ptr %4, align 8, !tbaa !3
  %50 = getelementptr inbounds nuw %struct.err_state_st, ptr %49, i32 0, i32 5
  %51 = load i64, ptr %5, align 8, !tbaa !12
  %52 = getelementptr inbounds nuw [16 x i32], ptr %50, i64 0, i64 %51
  store i32 1, ptr %52, align 4, !tbaa !8
  br label %53

53:                                               ; preds = %42, %35
  br label %54

54:                                               ; preds = %53, %17
  br label %68

55:                                               ; preds = %3
  %56 = load ptr, ptr %4, align 8, !tbaa !3
  %57 = getelementptr inbounds nuw %struct.err_state_st, ptr %56, i32 0, i32 3
  %58 = load i64, ptr %5, align 8, !tbaa !12
  %59 = getelementptr inbounds nuw [16 x ptr], ptr %57, i64 0, i64 %58
  store ptr null, ptr %59, align 8, !tbaa !14
  %60 = load ptr, ptr %4, align 8, !tbaa !3
  %61 = getelementptr inbounds nuw %struct.err_state_st, ptr %60, i32 0, i32 4
  %62 = load i64, ptr %5, align 8, !tbaa !12
  %63 = getelementptr inbounds nuw [16 x i64], ptr %61, i64 0, i64 %62
  store i64 0, ptr %63, align 8, !tbaa !12
  %64 = load ptr, ptr %4, align 8, !tbaa !3
  %65 = getelementptr inbounds nuw %struct.err_state_st, ptr %64, i32 0, i32 5
  %66 = load i64, ptr %5, align 8, !tbaa !12
  %67 = getelementptr inbounds nuw [16 x i32], ptr %65, i64 0, i64 %66
  store i32 0, ptr %67, align 4, !tbaa !8
  br label %68

68:                                               ; preds = %55, %54
  ret void
}

; Function Attrs: inlinehint nounwind uwtable
define internal void @err_clear(ptr noundef %0, i64 noundef %1, i32 noundef %2) #2 {
  %4 = alloca ptr, align 8
  %5 = alloca i64, align 8
  %6 = alloca i32, align 4
  store ptr %0, ptr %4, align 8, !tbaa !3
  store i64 %1, ptr %5, align 8, !tbaa !12
  store i32 %2, ptr %6, align 4, !tbaa !8
  %7 = load ptr, ptr %4, align 8, !tbaa !3
  %8 = load i64, ptr %5, align 8, !tbaa !12
  %9 = load i32, ptr %6, align 4, !tbaa !8
  call void @err_clear_data(ptr noundef %7, i64 noundef %8, i32 noundef %9)
  %10 = load ptr, ptr %4, align 8, !tbaa !3
  %11 = getelementptr inbounds nuw %struct.err_state_st, ptr %10, i32 0, i32 1
  %12 = load i64, ptr %5, align 8, !tbaa !12
  %13 = getelementptr inbounds nuw [16 x i32], ptr %11, i64 0, i64 %12
  store i32 0, ptr %13, align 4, !tbaa !8
  %14 = load ptr, ptr %4, align 8, !tbaa !3
  %15 = getelementptr inbounds nuw %struct.err_state_st, ptr %14, i32 0, i32 0
  %16 = load i64, ptr %5, align 8, !tbaa !12
  %17 = getelementptr inbounds nuw [16 x i32], ptr %15, i64 0, i64 %16
  store i32 0, ptr %17, align 4, !tbaa !8
  %18 = load ptr, ptr %4, align 8, !tbaa !3
  %19 = getelementptr inbounds nuw %struct.err_state_st, ptr %18, i32 0, i32 2
  %20 = load i64, ptr %5, align 8, !tbaa !12
  %21 = getelementptr inbounds nuw [16 x i64], ptr %19, i64 0, i64 %20
  store i64 0, ptr %21, align 8, !tbaa !12
  %22 = load ptr, ptr %4, align 8, !tbaa !3
  %23 = getelementptr inbounds nuw %struct.err_state_st, ptr %22, i32 0, i32 7
  %24 = load i64, ptr %5, align 8, !tbaa !12
  %25 = getelementptr inbounds nuw [16 x i32], ptr %23, i64 0, i64 %24
  store i32 -1, ptr %25, align 4, !tbaa !8
  %26 = load ptr, ptr %4, align 8, !tbaa !3
  %27 = getelementptr inbounds nuw %struct.err_state_st, ptr %26, i32 0, i32 6
  %28 = load i64, ptr %5, align 8, !tbaa !12
  %29 = getelementptr inbounds nuw [16 x ptr], ptr %27, i64 0, i64 %28
  %30 = load ptr, ptr %29, align 8, !tbaa !14
  call void @CRYPTO_free(ptr noundef %30, ptr noundef @.str.7, i32 noundef 91)
  %31 = load ptr, ptr %4, align 8, !tbaa !3
  %32 = getelementptr inbounds nuw %struct.err_state_st, ptr %31, i32 0, i32 6
  %33 = load i64, ptr %5, align 8, !tbaa !12
  %34 = getelementptr inbounds nuw [16 x ptr], ptr %32, i64 0, i64 %33
  store ptr null, ptr %34, align 8, !tbaa !14
  %35 = load ptr, ptr %4, align 8, !tbaa !3
  %36 = getelementptr inbounds nuw %struct.err_state_st, ptr %35, i32 0, i32 8
  %37 = load i64, ptr %5, align 8, !tbaa !12
  %38 = getelementptr inbounds nuw [16 x ptr], ptr %36, i64 0, i64 %37
  %39 = load ptr, ptr %38, align 8, !tbaa !14
  call void @CRYPTO_free(ptr noundef %39, ptr noundef @.str.7, i32 noundef 93)
  %40 = load ptr, ptr %4, align 8, !tbaa !3
  %41 = getelementptr inbounds nuw %struct.err_state_st, ptr %40, i32 0, i32 8
  %42 = load i64, ptr %5, align 8, !tbaa !12
  %43 = getelementptr inbounds nuw [16 x ptr], ptr %41, i64 0, i64 %42
  store ptr null, ptr %43, align 8, !tbaa !14
  ret void
}

; Function Attrs: nounwind uwtable
define void @OSSL_ERR_STATE_free(ptr noundef %0) #0 {
  %2 = alloca ptr, align 8
  %3 = alloca i32, align 4
  %4 = alloca i32, align 4
  store ptr %0, ptr %2, align 8, !tbaa !3
  call void @llvm.lifetime.start.p0(i64 4, ptr %3) #8
  %5 = load ptr, ptr %2, align 8, !tbaa !3
  %6 = icmp eq ptr %5, null
  br i1 %6, label %7, label %8

7:                                                ; preds = %1
  store i32 1, ptr %4, align 4
  br label %21

8:                                                ; preds = %1
  store i32 0, ptr %3, align 4, !tbaa !8
  br label %9

9:                                                ; preds = %16, %8
  %10 = load i32, ptr %3, align 4, !tbaa !8
  %11 = icmp slt i32 %10, 16
  br i1 %11, label %12, label %19

12:                                               ; preds = %9
  %13 = load ptr, ptr %2, align 8, !tbaa !3
  %14 = load i32, ptr %3, align 4, !tbaa !8
  %15 = sext i32 %14 to i64
  call void @err_clear(ptr noundef %13, i64 noundef %15, i32 noundef 1)
  br label %16

16:                                               ; preds = %12
  %17 = load i32, ptr %3, align 4, !tbaa !8
  %18 = add nsw i32 %17, 1
  store i32 %18, ptr %3, align 4, !tbaa !8
  br label %9, !llvm.loop !10

19:                                               ; preds = %9
  %20 = load ptr, ptr %2, align 8, !tbaa !3
  call void @CRYPTO_free(ptr noundef %20, ptr noundef @.str, i32 noundef 210)
  store i32 0, ptr %4, align 4
  br label %21

21:                                               ; preds = %19, %7
  call void @llvm.lifetime.end.p0(i64 4, ptr %3) #8
  %22 = load i32, ptr %4, align 4
  switch i32 %22, label %24 [
    i32 0, label %23
    i32 1, label %23
  ]

23:                                               ; preds = %21, %21
  ret void

24:                                               ; preds = %21
  unreachable
}

; Function Attrs: nounwind uwtable
define internal void @err_delete_thread_state(ptr noundef %0) #0 {
  %2 = alloca ptr, align 8
  %3 = alloca ptr, align 8
  %4 = alloca i32, align 4
  store ptr %0, ptr %2, align 8, !tbaa !16
  call void @llvm.lifetime.start.p0(i64 8, ptr %3) #8
  %5 = call ptr @CRYPTO_THREAD_get_local(ptr noundef @err_thread_local)
  store ptr %5, ptr %3, align 8, !tbaa !3
  %6 = load ptr, ptr %3, align 8, !tbaa !3
  %7 = icmp eq ptr %6, null
  br i1 %7, label %8, label %9

8:                                                ; preds = %1
  store i32 1, ptr %4, align 4
  br label %12

9:                                                ; preds = %1
  %10 = call i32 @CRYPTO_THREAD_set_local(ptr noundef @err_thread_local, ptr noundef null)
  %11 = load ptr, ptr %3, align 8, !tbaa !3
  call void @OSSL_ERR_STATE_free(ptr noundef %11)
  store i32 0, ptr %4, align 4
  br label %12

12:                                               ; preds = %9, %8
  call void @llvm.lifetime.end.p0(i64 8, ptr %3) #8
  %13 = load i32, ptr %4, align 4
  switch i32 %13, label %15 [
    i32 0, label %14
    i32 1, label %14
  ]

14:                                               ; preds = %12, %12
  ret void

15:                                               ; preds = %12
  unreachable
}