; Function Attrs: nounwind uwtable
define internal void @err_delete_thread_state(ptr readnone captures(none) %0) #0 {
  %2 = tail call ptr @CRYPTO_THREAD_get_local(ptr noundef nonnull @err_thread_local) #10
  %3 = icmp eq ptr %2, null
  br i1 %3, label %29, label %.preheader.i

.preheader.i:                                     ; preds = %1
  %4 = tail call i32 @CRYPTO_THREAD_set_local(ptr noundef nonnull @err_thread_local, ptr noundef null) #10
  %5 = getelementptr inbounds nuw i8, ptr %2, i64 512
  %6 = getelementptr inbounds nuw i8, ptr %2, i64 256
  %7 = getelementptr inbounds nuw i8, ptr %2, i64 384
  %8 = getelementptr inbounds nuw i8, ptr %2, i64 64
  %9 = getelementptr inbounds nuw i8, ptr %2, i64 128
  %10 = getelementptr inbounds nuw i8, ptr %2, i64 704
  %11 = getelementptr inbounds nuw i8, ptr %2, i64 576
  %12 = getelementptr inbounds nuw i8, ptr %2, i64 768
  br label %13

13:                                               ; preds = %err_clear.exit.i, %.preheader.i
  %indvars.iv.i = phi i64 [ 0, %.preheader.i ], [ %indvars.iv.next.i, %err_clear.exit.i ]
  %14 = getelementptr inbounds nuw [16 x i32], ptr %5, i64 0, i64 %indvars.iv.i
  %15 = load i32, ptr %14, align 4, !tbaa !3
  %16 = and i32 %15, 1
  %.not.i.i.i = icmp eq i32 %16, 0
  %17 = getelementptr inbounds nuw [16 x ptr], ptr %6, i64 0, i64 %indvars.iv.i
  br i1 %.not.i.i.i, label %err_clear.exit.i, label %18

18:                                               ; preds = %13
  %19 = load ptr, ptr %17, align 8, !tbaa !7
  tail call void @CRYPTO_free(ptr noundef %19, ptr noundef nonnull @.str.7, i32 noundef 25) #10
  br label %err_clear.exit.i

err_clear.exit.i:                                 ; preds = %18, %13
  store ptr null, ptr %17, align 8, !tbaa !7
  %20 = getelementptr inbounds nuw [16 x i64], ptr %7, i64 0, i64 %indvars.iv.i
  store i64 0, ptr %20, align 8, !tbaa !10
  store i32 0, ptr %14, align 4, !tbaa !3
  %21 = getelementptr inbounds nuw [16 x i32], ptr %8, i64 0, i64 %indvars.iv.i
  store i32 0, ptr %21, align 4, !tbaa !3
  %22 = getelementptr inbounds nuw [16 x i32], ptr %2, i64 0, i64 %indvars.iv.i
  store i32 0, ptr %22, align 4, !tbaa !3
  %23 = getelementptr inbounds nuw [16 x i64], ptr %9, i64 0, i64 %indvars.iv.i
  store i64 0, ptr %23, align 8, !tbaa !10
  %24 = getelementptr inbounds nuw [16 x i32], ptr %10, i64 0, i64 %indvars.iv.i
  store i32 -1, ptr %24, align 4, !tbaa !3
  %25 = getelementptr inbounds nuw [16 x ptr], ptr %11, i64 0, i64 %indvars.iv.i
  %26 = load ptr, ptr %25, align 8, !tbaa !7
  tail call void @CRYPTO_free(ptr noundef %26, ptr noundef nonnull @.str.7, i32 noundef 91) #10
  store ptr null, ptr %25, align 8, !tbaa !7
  %27 = getelementptr inbounds nuw [16 x ptr], ptr %12, i64 0, i64 %indvars.iv.i
  %28 = load ptr, ptr %27, align 8, !tbaa !7
  tail call void @CRYPTO_free(ptr noundef %28, ptr noundef nonnull @.str.7, i32 noundef 93) #10
  store ptr null, ptr %27, align 8, !tbaa !7
  %indvars.iv.next.i = add nuw nsw i64 %indvars.iv.i, 1
  %exitcond.not.i = icmp eq i64 %indvars.iv.next.i, 16
  br i1 %exitcond.not.i, label %OSSL_ERR_STATE_free.exit, label %13, !llvm.loop !12

OSSL_ERR_STATE_free.exit:                         ; preds = %err_clear.exit.i
  tail call void @CRYPTO_free(ptr noundef nonnull %2, ptr noundef nonnull @.str, i32 noundef 210) #10
  br label %29

29:                                               ; preds = %1, %OSSL_ERR_STATE_free.exit
  ret void
}